target datalayout = "e-m:e-p270:32:32-p271:32:32-p272:64:64-i64:64-i128:128-f80:128-n8:16:32:64-S128"
target triple = "x86_64-pc-linux-gnu"

%struct.BEValue = type { i8, i32, ptr, ptr, ptr }
%struct.GenContext_ = type { i8, ptr, ptr, ptr, ptr, ptr, ptr, ptr, ptr, ptr, ptr, ptr, ptr, ptr, ptr, ptr, ptr, ptr, ptr, ptr, ptr, ptr, ptr, ptr, ptr, ptr, ptr, ptr, ptr, ptr, ptr, ptr, ptr, %struct.anon.85, i32, i32, %struct.DebugContext, ptr, ptr, ptr, %struct.BEValue, i8, %union.SourceSpan, ptr, ptr, ptr, ptr }
%struct.anon.85 = type { ptr, ptr, ptr }
%struct.DebugContext = type { i16, ptr, ptr, %struct.DebugFile_, ptr, ptr, ptr, ptr }
%struct.DebugFile_ = type { i16, ptr }
%union.SourceSpan = type { i64 }
%struct.Type_ = type { i32, ptr, ptr, ptr, %union.anon.97, ptr, ptr, %union.anon.99 }
%union.anon.97 = type { ptr }
%union.anon.99 = type { %struct.TypeFunction }
%struct.TypeFunction = type { ptr, ptr, ptr }

@.str.3 = private unnamed_addr constant [1 x i8] zeroinitializer, align 1
@type_usz = external global ptr, align 8

; Function Attrs: nounwind uwtable
define dso_local void @llvm_emit_expand_to_vec_cast(ptr noundef %0, ptr noundef %1, ptr noundef %2, ptr noundef %3) #0 {
  %5 = alloca ptr, align 8
  %6 = alloca i32, align 4
  %7 = alloca ptr, align 8
  %8 = alloca ptr, align 8
  %9 = alloca i64, align 8
  %10 = alloca ptr, align 8
  %11 = alloca ptr, align 8
  %12 = alloca ptr, align 8
  %13 = alloca ptr, align 8
  %14 = alloca ptr, align 8
  %15 = alloca i32, align 4
  %16 = alloca ptr, align 8
  %17 = alloca i32, align 4
  store ptr %0, ptr %10, align 8
  store ptr %1, ptr %11, align 8
  store ptr %2, ptr %12, align 8
  store ptr %3, ptr %13, align 8
  %18 = load ptr, ptr %10, align 8
  %19 = load ptr, ptr %11, align 8
  call void @llvm_value_rvalue(ptr noundef %18, ptr noundef %19)
  %20 = load ptr, ptr %10, align 8
  %21 = load ptr, ptr %12, align 8
  %22 = call ptr @llvm_get_type(ptr noundef %20, ptr noundef %21)
  store ptr %22, ptr %14, align 8
  %23 = load ptr, ptr %14, align 8
  %24 = call i32 @LLVMGetVectorSize(ptr noundef %23)
  store i32 %24, ptr %15, align 4
  %25 = load ptr, ptr %14, align 8
  %26 = call ptr @LLVMGetUndef(ptr noundef %25)
  store ptr %26, ptr %16, align 8
  store i32 0, ptr %17, align 4
  br label %27

27:                                               ; preds = %70, %4
  %28 = load i32, ptr %17, align 4
  %29 = load i32, ptr %15, align 4
  %30 = icmp ult i32 %28, %29
  br i1 %30, label %31, label %73

31:                                               ; preds = %27
  %32 = load ptr, ptr %10, align 8
  %33 = getelementptr inbounds %struct.GenContext_, ptr %32, i32 0, i32 8
  %34 = load ptr, ptr %33, align 8
  %35 = load ptr, ptr %16, align 8
  %36 = load ptr, ptr %11, align 8
  %37 = getelementptr inbounds %struct.BEValue, ptr %36, i32 0, i32 3
  %38 = load ptr, ptr %37, align 8
  %39 = load ptr, ptr %10, align 8
  %40 = load ptr, ptr @type_usz, align 8
  %41 = load i32, ptr %17, align 4
  %42 = zext i32 %41 to i64
  store ptr %39, ptr %7, align 8
  store ptr %40, ptr %8, align 8
  store i64 %42, ptr %9, align 8
  %43 = load ptr, ptr %8, align 8
  %44 = call ptr @type_lowering(ptr noundef %43)
  store ptr %44, ptr %8, align 8
  %45 = load ptr, ptr %7, align 8
  %46 = load ptr, ptr %8, align 8
  %47 = call ptr @llvm_get_type(ptr noundef %45, ptr noundef %46) #8
  %48 = load i64, ptr %9, align 8
  %49 = load ptr, ptr %8, align 8
  store ptr %49, ptr %5, align 8
  %50 = load ptr, ptr %5, align 8
  %51 = load i32, ptr %50, align 8
  store i32 %51, ptr %6, align 4
  %52 = load i32, ptr %6, align 4
  %53 = icmp eq i32 %52, 31
  br i1 %53, label %54, label %59

54:                                               ; preds = %31
  %55 = load ptr, ptr %5, align 8
  %56 = getelementptr inbounds %struct.Type_, ptr %55, i32 0, i32 1
  %57 = load ptr, ptr %56, align 8
  %58 = load i32, ptr %57, align 8
  store i32 %58, ptr %6, align 4
  br label %59

59:                                               ; preds = %54, %31
  %60 = load i32, ptr %6, align 4
  %61 = icmp uge i32 %60, 3
  br i1 %61, label %62, label %65

62:                                               ; preds = %59
  %63 = load i32, ptr %6, align 4
  %64 = icmp ule i32 %63, 7
  br label %65

65:                                               ; preds = %62, %59
  %66 = phi i1 [ false, %59 ], [ %64, %62 ]
  %67 = zext i1 %66 to i32
  %68 = call ptr @LLVMConstInt(ptr noundef %47, i64 noundef %48, i32 noundef %67) #8
  %69 = call ptr @LLVMBuildInsertElement(ptr noundef %34, ptr noundef %35, ptr noundef %38, ptr noundef %68, ptr noundef @.str.3)
  store ptr %69, ptr %16, align 8
  br label %70

70:                                               ; preds = %65
  %71 = load i32, ptr %17, align 4
  %72 = add i32 %71, 1
  store i32 %72, ptr %17, align 4
  br label %27, !llvm.loop !25

73:                                               ; preds = %27
  %74 = load ptr, ptr %11, align 8
  %75 = load ptr, ptr %16, align 8
  %76 = load ptr, ptr %12, align 8
  call void @llvm_value_set(ptr noundef %74, ptr noundef %75, ptr noundef %76)
  ret void
}