; Function Attrs: nounwind uwtable
define dso_local void @llvm_emit_expand_to_vec_cast(ptr noundef %0, ptr noundef %1, ptr noundef %2, ptr nocapture readnone %3) local_unnamed_addr #0 {
  tail call void @llvm_value_rvalue(ptr noundef %0, ptr noundef %1) #10
  %5 = tail call ptr @llvm_get_type(ptr noundef %0, ptr noundef %2) #10
  %6 = tail call i32 @LLVMGetVectorSize(ptr noundef %5) #10
  %7 = tail call ptr @LLVMGetUndef(ptr noundef %5) #10
  %.not = icmp eq i32 %6, 0
  br i1 %.not, label %._crit_edge, label %.lr.ph

.lr.ph:                                           ; preds = %4
  %8 = getelementptr inbounds i8, ptr %0, i64 64
  %9 = getelementptr inbounds i8, ptr %1, i64 16
  %wide.trip.count = zext i32 %6 to i64
  br label %10

10:                                               ; preds = %.lr.ph, %22
  %indvars.iv = phi i64 [ 0, %.lr.ph ], [ %indvars.iv.next, %22 ]
  %.02629 = phi ptr [ %7, %.lr.ph ], [ %27, %22 ]
  %11 = load ptr, ptr %8, align 8
  %12 = load ptr, ptr %9, align 8
  %13 = load ptr, ptr @type_usz, align 8
  %14 = tail call fastcc ptr @type_lowering(ptr noundef %13)
  %15 = tail call ptr @llvm_get_type(ptr noundef %0, ptr noundef %14) #10
  %16 = load i32, ptr %14, align 8
  %17 = icmp eq i32 %16, 31
  br i1 %17, label %18, label %22

18:                                               ; preds = %10
  %19 = getelementptr inbounds i8, ptr %14, i64 8
  %20 = load ptr, ptr %19, align 8
  %21 = load i32, ptr %20, align 8
  br label %22

22:                                               ; preds = %18, %10
  %.027 = phi i32 [ %21, %18 ], [ %16, %10 ]
  %23 = add i32 %.027, -3
  %24 = icmp ult i32 %23, 5
  %25 = zext i1 %24 to i32
  %26 = tail call ptr @LLVMConstInt(ptr noundef %15, i64 noundef %indvars.iv, i32 noundef %25) #10
  %27 = tail call ptr @LLVMBuildInsertElement(ptr noundef %11, ptr noundef %.02629, ptr noundef %12, ptr noundef %26, ptr noundef nonnull @.str.3) #10
  %indvars.iv.next = add nuw nsw i64 %indvars.iv, 1
  %exitcond.not = icmp eq i64 %indvars.iv.next, %wide.trip.count
  br i1 %exitcond.not, label %._crit_edge, label %10, !llvm.loop !38

._crit_edge:                                      ; preds = %22, %4
  %.026.lcssa = phi ptr [ %7, %4 ], [ %27, %22 ]
  tail call void @llvm_value_set(ptr noundef %1, ptr noundef %.026.lcssa, ptr noundef %2) #10
  ret void
}